Certificate:
    Data:
        Version: 3 (0x2)
        Serial Number: 0 (0x0)
        Signature Algorithm: sha256WithRSAEncryption
        Issuer: C=JA, ST=Tokyo, L=Chiyoda-ku, O=Japan Agency for Local Authority Information Systems, CN=www.j-lis.go.jp
        Validity
            Not Before: May 29 06:36:08 2024 GMT
            Not After : May 29 06:36:08 2025 GMT
        Subject: C=JA, ST=Tokyo, L=Shinjuku-ku, O=Internet Widgits Pty Ltd, CN=82025
        Subject Public Key Info:
            Public Key Algorithm: rsaEncryption
                Public-Key: (2048 bit)
                Modulus:
                    00:c2:90:83:3f:bc:bf:74:1a:96:e1:e5:22:3a:51:
                    23:21:83:ef:7e:8c:37:a5:0a:78:73:60:9d:ed:86:
                    a3:e6:a5:ee:72:87:4c:6d:64:a9:21:59:16:23:cf:
                    33:a7:7a:2f:78:f0:91:d7:fc:77:1d:3d:f7:cc:f9:
                    2c:92:9d:b7:dd:84:dc:69:ca:e9:ff:5f:d8:a5:ce:
                    dd:52:72:5c:b2:6e:93:67:7d:c3:12:e3:72:e5:27:
                    65:f7:a0:b9:78:2e:8f:1e:b6:8c:b1:1a:52:97:9f:
                    4a:e8:c2:d1:7f:19:2e:2c:23:d6:8f:52:9a:18:d1:
                    d3:3e:9c:2b:d3:c1:ec:6b:ba:f4:21:c4:fa:f8:6b:
                    b4:62:d7:15:01:6c:e4:43:7d:b7:60:7d:bf:a1:7e:
                    68:17:e6:c6:33:fb:e7:e0:90:07:ed:4e:2a:7d:c1:
                    19:e3:16:e4:7f:27:25:da:13:0f:bc:e4:c3:6a:d7:
                    e9:7f:69:cb:dc:8e:7f:f9:7d:5e:9a:4d:49:77:fb:
                    1a:d5:e9:0f:80:08:55:87:b6:83:da:4a:ef:e2:f6:
                    c3:a8:9f:6b:b0:db:94:a9:8e:65:de:01:43:09:a5:
                    99:ee:26:05:1f:ac:46:84:ea:b7:8c:03:97:30:ec:
                    a7:eb:f1:09:41:b9:e2:b2:40:bd:54:f1:28:b2:31:
                    c5:e1
                Exponent: 65537 (0x10001)
        X509v3 extensions:
            X509v3 Subject Alternative Name: 
                DNS:www.j-lis.go.jp
            X509v3 Subject Key Identifier: 
                58:52:27:F5:0B:5E:02:99:FD:A7:15:F7:4F:86:5C:7F:4D:14:17:9F
            X509v3 Authority Key Identifier: 
                DirName:/C=JA/ST=Tokyo/L=Chiyoda-ku/O=Japan Agency for Local Authority Information Systems/CN=www.j-lis.go.jp
                serial:15:CA:F8:B5:3C:71:AC:3B:F2:8C:58:7C:78:3F:B7:D8:35:D3:ED:F5
    Signature Algorithm: sha256WithRSAEncryption
    Signature Value:
        35:c2:1f:f2:93:a7:b2:74:ba:82:75:8d:d6:65:eb:42:58:29:
        47:4f:38:c2:f4:17:e4:fa:2a:a4:80:e5:28:64:86:05:0e:f5:
        ff:cd:f7:cc:ac:de:80:26:d5:c2:b1:25:84:7f:3d:52:db:6e:
        ab:ae:79:38:db:54:31:1e:fd:37:ee:cd:78:9b:7b:c2:dc:a0:
        57:f3:87:4e:77:69:86:3b:65:08:a2:a2:64:04:83:0d:7d:3d:
        fe:91:20:ff:6a:3c:08:00:0e:ff:79:fd:04:b4:17:72:14:3d:
        e2:0d:d4:ee:21:78:49:a0:39:05:7e:61:6f:b6:63:42:7e:93:
        e4:05:44:54:5a:e3:be:1e:f7:f4:16:0e:84:c8:b4:a2:17:c0:
        fd:ef:9c:ae:6d:90:c1:03:16:9f:9a:a6:4c:d9:e0:2f:6f:19:
        1e:ee:b6:30:34:c4:ae:7e:0b:01:23:54:66:b4:74:bd:34:e2:
        55:16:fd:b7:9d:68:f6:d4:a9:21:d0:46:8d:cd:75:63:de:e8:
        01:07:4f:53:62:67:7f:a0:bb:13:a9:5c:1b:89:26:d1:fe:1e:
        2f:f9:5f:60:3e:fd:58:77:85:85:e1:df:53:ef:15:a5:3c:ed:
        24:99:39:6e:27:a5:2f:db:45:a5:23:d8:73:99:f4:6e:8a:e0:
        fa:38:85:dc
-----BEGIN CERTIFICATE-----
MIIEZDCCA0ygAwIBAgIBADANBgkqhkiG9w0BAQsFADCBizELMAkGA1UEBhMCSkEx
DjAMBgNVBAgMBVRva3lvMRMwEQYDVQQHDApDaGl5b2RhLWt1MT0wOwYDVQQKDDRK
YXBhbiBBZ2VuY3kgZm9yIExvY2FsIEF1dGhvcml0eSBJbmZvcm1hdGlvbiBTeXN0
ZW1zMRgwFgYDVQQDDA93d3cuai1saXMuZ28uanAwHhcNMjQwNTI5MDYzNjA4WhcN
MjUwNTI5MDYzNjA4WjBmMQswCQYDVQQGEwJKQTEOMAwGA1UECAwFVG9reW8xFDAS
BgNVBAcMC1NoaW5qdWt1LWt1MSEwHwYDVQQKDBhJbnRlcm5ldCBXaWRnaXRzIFB0
eSBMdGQxDjAMBgNVBAMMBTgyMDI1MIIBIjANBgkqhkiG9w0BAQEFAAOCAQ8AMIIB
CgKCAQEAwpCDP7y/dBqW4eUiOlEjIYPvfow3pQp4c2Cd7Yaj5qXucodMbWSpIVkW
I88zp3ovePCR1/x3HT33zPkskp233YTcacrp/1/Ypc7dUnJcsm6TZ33DEuNy5Sdl
96C5eC6PHraMsRpSl59K6MLRfxkuLCPWj1KaGNHTPpwr08Hsa7r0IcT6+Gu0YtcV
AWzkQ323YH2/oX5oF+bGM/vn4JAH7U4qfcEZ4xbkfycl2hMPvOTDatfpf2nL3I5/
+X1emk1Jd/sa1ekPgAhVh7aD2krv4vbDqJ9rsNuUqY5l3gFDCaWZ7iYFH6xGhOq3
jAOXMOyn6/EJQbniskC9VPEosjHF4QIDAQABo4H2MIHzMBoGA1UdEQQTMBGCD3d3
dy5qLWxpcy5nby5qcDAdBgNVHQ4EFgQUWFIn9QteApn9pxX3T4Zcf00UF58wgbUG
A1UdIwSBrTCBqqGBkaSBjjCBizELMAkGA1UEBhMCSkExDjAMBgNVBAgMBVRva3lv
MRMwEQYDVQQHDApDaGl5b2RhLWt1MT0wOwYDVQQKDDRKYXBhbiBBZ2VuY3kgZm9y
IExvY2FsIEF1dGhvcml0eSBJbmZvcm1hdGlvbiBTeXN0ZW1zMRgwFgYDVQQDDA93
d3cuai1saXMuZ28uanCCFBXK+LU8caw78oxYfHg/t9g10+31MA0GCSqGSIb3DQEB
CwUAA4IBAQA1wh/yk6eydLqCdY3WZetCWClHTzjC9Bfk+iqkgOUoZIYFDvX/zffM
rN6AJtXCsSWEfz1S226rrnk421QxHv037s14m3vC3KBX84dOd2mGO2UIoqJkBIMN
fT3+kSD/ajwIAA7/ef0EtBdyFD3iDdTuIXhJoDkFfmFvtmNCfpPkBURUWuO+Hvf0
Fg6EyLSiF8D975yubZDBAxafmqZM2eAvbxke7rYwNMSufgsBI1RmtHS9NOJVFv23
nWj21Kkh0EaNzXVj3ugBB09TYmd/oLsTqVwbiSbR/h4v+V9gPv1Yd4WF4d9T7xWl
PO0kmTluJ6Uv20WlI9hzmfRuiuD6OIXc
-----END CERTIFICATE-----
